; Function Attrs: mustprogress nounwind uwtable
define dso_local void @_ZN4llvm6AMDGPU23fillValidArchListAMDGCNERNS_15SmallVectorImplINS_9StringRefEEE(ptr noundef nonnull align 8 dereferenceable(16) %0) local_unnamed_addr #3 {
  %2 = getelementptr inbounds i8, ptr %0, i64 16
  br label %3

3:                                                ; preds = %1, %_ZN4llvm23SmallVectorTemplateBaseINS_9StringRefELb1EE9push_backES1_.exit
  %.0.idx6 = phi i64 [ 0, %1 ], [ %.0.add, %_ZN4llvm23SmallVectorTemplateBaseINS_9StringRefELb1EE9push_backES1_.exit ]
  %.0.ptr = getelementptr inbounds i8, ptr @_ZN12_GLOBAL__N_110AMDGCNGPUsE, i64 %.0.idx6
  %.sroa.0.0.copyload = load ptr, ptr %.0.ptr, align 8
  %.sroa.2.0..sroa_idx = getelementptr inbounds i8, ptr %.0.ptr, i64 8
  %.sroa.2.0.copyload = load i64, ptr %.sroa.2.0..sroa_idx, align 8
  %4 = tail call noundef i64 @_ZNK4llvm15SmallVectorBaseIjE4sizeEv(ptr noundef nonnull align 8 dereferenceable(16) %0) #9
  %5 = add i64 %4, 1
  %6 = tail call noundef i64 @_ZNK4llvm15SmallVectorBaseIjE8capacityEv(ptr noundef nonnull align 8 dereferenceable(16) %0) #9
  %.not.i.i.i = icmp ugt i64 %5, %6
  br i1 %.not.i.i.i, label %7, label %_ZN4llvm23SmallVectorTemplateBaseINS_9StringRefELb1EE9push_backES1_.exit

7:                                                ; preds = %3
  tail call void @_ZN4llvm15SmallVectorBaseIjE8grow_podEPvmm(ptr noundef nonnull align 8 dereferenceable(16) %0, ptr noundef nonnull %2, i64 noundef %5, i64 noundef 16) #9
  br label %_ZN4llvm23SmallVectorTemplateBaseINS_9StringRefELb1EE9push_backES1_.exit

_ZN4llvm23SmallVectorTemplateBaseINS_9StringRefELb1EE9push_backES1_.exit: ; preds = %3, %7
  %8 = load ptr, ptr %0, align 8
  %9 = tail call noundef i64 @_ZNK4llvm15SmallVectorBaseIjE4sizeEv(ptr noundef nonnull align 8 dereferenceable(16) %0) #9
  %10 = getelementptr inbounds %"class.llvm::StringRef", ptr %8, i64 %9
  store ptr %.sroa.0.0.copyload, ptr %10, align 1
  %.sroa.2.0..sroa_idx.i = getelementptr inbounds i8, ptr %10, i64 8
  store i64 %.sroa.2.0.copyload, ptr %.sroa.2.0..sroa_idx.i, align 1
  %11 = tail call noundef i64 @_ZNK4llvm15SmallVectorBaseIjE4sizeEv(ptr noundef nonnull align 8 dereferenceable(16) %0) #9
  %12 = add i64 %11, 1
  tail call void @_ZN4llvm15SmallVectorBaseIjE8set_sizeEm(ptr noundef nonnull align 8 dereferenceable(16) %0, i64 noundef %12) #9
  %.0.add = add nuw nsw i64 %.0.idx6, 40
  %.not = icmp eq i64 %.0.add, 2720
  br i1 %.not, label %13, label %3

13:                                               ; preds = %_ZN4llvm23SmallVectorTemplateBaseINS_9StringRefELb1EE9push_backES1_.exit
  ret void
}